target datalayout = "e-m:e-p270:32:32-p271:32:32-p272:64:64-i64:64-i128:128-f80:128-n8:16:32:64-S128"
target triple = "x86_64-pc-linux-gnu"

%struct._DtBauhausWidget = type { %struct._GtkDrawingArea, i32, ptr, ptr, i32, [256 x i8], i32, ptr, i32, ptr, ptr, i32, ptr, i32, i32, i32, %struct._GtkBorder, %struct._GtkBorder, i32, %union.dt_bauhaus_data_t }
%struct._GtkDrawingArea = type { %struct._GtkWidget, ptr }
%struct._GtkWidget = type { %struct._GObject, ptr }
%struct._GObject = type { %struct._GTypeInstance, i32, ptr }
%struct._GTypeInstance = type { ptr }
%struct._GtkBorder = type { i16, i16, i16, i16 }
%union.dt_bauhaus_data_t = type { %struct.dt_bauhaus_slider_data_t }
%struct.dt_bauhaus_slider_data_t = type { float, float, float, float, float, float, float, float, float, float, i32, ptr, i32, ptr, i8, ptr, float, float, i8, i32, ptr }
%struct._GdkEventButton = type { i32, ptr, i8, i32, double, double, ptr, i32, i32, ptr, double, double }

; Function Attrs: nounwind uwtable
define internal i32 @_widget_button_release(ptr noundef %0, ptr noundef %1) #0 {
  %3 = alloca i32, align 4
  %4 = alloca ptr, align 8
  %5 = alloca ptr, align 8
  %6 = alloca ptr, align 8
  %7 = alloca i32, align 4
  %8 = alloca ptr, align 8
  store ptr %0, ptr %4, align 8, !tbaa !15
  store ptr %1, ptr %5, align 8, !tbaa !185
  call void @llvm.lifetime.start.p0(i64 8, ptr %6) #13
  %9 = load ptr, ptr %4, align 8, !tbaa !15
  store ptr %9, ptr %6, align 8, !tbaa !17
  %10 = load ptr, ptr %4, align 8, !tbaa !15
  call void @dt_bauhaus_widget_release_quad(ptr noundef %10)
  %11 = load ptr, ptr %6, align 8, !tbaa !17
  %12 = getelementptr inbounds nuw %struct._DtBauhausWidget, ptr %11, i32 0, i32 1
  %13 = load i32, ptr %12, align 8, !tbaa !139
  %14 = icmp ne i32 %13, 1
  br i1 %14, label %15, label %16

15:                                               ; preds = %2
  store i32 0, ptr %3, align 4
  store i32 1, ptr %7, align 4
  br label %55

16:                                               ; preds = %2
  call void @llvm.lifetime.start.p0(i64 8, ptr %8) #13
  %17 = load ptr, ptr %6, align 8, !tbaa !17
  %18 = getelementptr inbounds nuw %struct._DtBauhausWidget, ptr %17, i32 0, i32 19
  store ptr %18, ptr %8, align 8, !tbaa !140
  %19 = load ptr, ptr %5, align 8, !tbaa !185
  %20 = getelementptr inbounds nuw %struct._GdkEventButton, ptr %19, i32 0, i32 8
  %21 = load i32, ptr %20, align 4, !tbaa !189
  %22 = icmp eq i32 %21, 1
  br i1 %22, label %23, label %53

23:                                               ; preds = %16
  %24 = load ptr, ptr %8, align 8, !tbaa !140
  %25 = getelementptr inbounds nuw %struct.dt_bauhaus_slider_data_t, ptr %24, i32 0, i32 18
  %26 = load i8, ptr %25, align 8
  %27 = shl i8 %26, 7
  %28 = ashr i8 %27, 7
  %29 = sext i8 %28 to i32
  %30 = icmp ne i32 %29, 0
  br i1 %30, label %31, label %53

31:                                               ; preds = %23
  %32 = load ptr, ptr %8, align 8, !tbaa !140
  %33 = getelementptr inbounds nuw %struct.dt_bauhaus_slider_data_t, ptr %32, i32 0, i32 18
  %34 = load i8, ptr %33, align 8
  %35 = and i8 %34, -2
  %36 = or i8 %35, 0
  store i8 %36, ptr %33, align 8
  %37 = load ptr, ptr %8, align 8, !tbaa !140
  %38 = getelementptr inbounds nuw %struct.dt_bauhaus_slider_data_t, ptr %37, i32 0, i32 19
  %39 = load i32, ptr %38, align 4, !tbaa !268
  %40 = icmp ne i32 %39, 0
  br i1 %40, label %41, label %46

41:                                               ; preds = %31
  %42 = load ptr, ptr %8, align 8, !tbaa !140
  %43 = getelementptr inbounds nuw %struct.dt_bauhaus_slider_data_t, ptr %42, i32 0, i32 19
  %44 = load i32, ptr %43, align 4, !tbaa !268
  %45 = call i32 @g_source_remove(i32 noundef %44)
  br label %46

46:                                               ; preds = %41, %31
  %47 = load ptr, ptr %8, align 8, !tbaa !140
  %48 = getelementptr inbounds nuw %struct.dt_bauhaus_slider_data_t, ptr %47, i32 0, i32 19
  store i32 0, ptr %48, align 4, !tbaa !268
  %49 = load ptr, ptr %6, align 8, !tbaa !17
  %50 = load ptr, ptr %8, align 8, !tbaa !140
  %51 = getelementptr inbounds nuw %struct.dt_bauhaus_slider_data_t, ptr %50, i32 0, i32 0
  %52 = load float, ptr %51, align 8, !tbaa !210
  call void @_slider_set_normalized(ptr noundef %49, float noundef %52)
  store i32 1, ptr %3, align 4
  store i32 1, ptr %7, align 4
  br label %54

53:                                               ; preds = %23, %16
  store i32 0, ptr %3, align 4
  store i32 1, ptr %7, align 4
  br label %54

54:                                               ; preds = %53, %46
  call void @llvm.lifetime.end.p0(i64 8, ptr %8) #13
  br label %55

55:                                               ; preds = %54, %15
  call void @llvm.lifetime.end.p0(i64 8, ptr %6) #13
  %56 = load i32, ptr %3, align 4
  ret i32 %56
}