; Function Attrs: nounwind uwtable
define internal range(i32 0, 2) i32 @_widget_button_release(ptr noundef %0, ptr noundef readonly captures(none) %1) #0 {
  tail call void @dt_bauhaus_widget_release_quad(ptr noundef %0)
  %3 = getelementptr inbounds nuw i8, ptr %0, i64 40
  %4 = load i32, ptr %3, align 8, !tbaa !105
  %.not = icmp eq i32 %4, 1
  br i1 %.not, label %5, label %22

5:                                                ; preds = %2
  %6 = getelementptr inbounds nuw i8, ptr %0, i64 408
  %7 = getelementptr inbounds nuw i8, ptr %1, i64 52
  %8 = load i32, ptr %7, align 4, !tbaa !156
  %9 = icmp eq i32 %8, 1
  br i1 %9, label %10, label %22

10:                                               ; preds = %5
  %11 = getelementptr inbounds nuw i8, ptr %0, i64 504
  %12 = load i8, ptr %11, align 8
  %13 = and i8 %12, 1
  %.not13 = icmp eq i8 %13, 0
  br i1 %.not13, label %22, label %14

14:                                               ; preds = %10
  %15 = and i8 %12, -2
  store i8 %15, ptr %11, align 8
  %16 = getelementptr inbounds nuw i8, ptr %0, i64 508
  %17 = load i32, ptr %16, align 4, !tbaa !222
  %.not14 = icmp eq i32 %17, 0
  br i1 %.not14, label %20, label %18

18:                                               ; preds = %14
  %19 = tail call i32 @g_source_remove(i32 noundef %17) #19
  br label %20

20:                                               ; preds = %18, %14
  store i32 0, ptr %16, align 4, !tbaa !222
  %21 = load float, ptr %6, align 8, !tbaa !143
  tail call fastcc void @_slider_set_normalized(ptr noundef nonnull %0, float noundef %21)
  br label %22

22:                                               ; preds = %20, %10, %5, %2
  %.0 = phi i32 [ 0, %2 ], [ 1, %20 ], [ 0, %10 ], [ 0, %5 ]
  ret i32 %.0
}